target datalayout = "e-m:e-p270:32:32-p271:32:32-p272:64:64-i64:64-i128:128-f80:128-n8:16:32:64-S128"
target triple = "x86_64-pc-linux-gnu"

%struct.anon = type { [3 x double] }
%struct._generic_N_Vector = type { ptr, ptr, ptr }
%struct._N_VectorContent_Serial = type { i64, i32, ptr }

; Function Attrs: nounwind uwtable
define internal i32 @resS(i32 noundef %0, double noundef %1, ptr noundef %2, ptr noundef %3, ptr noundef %4, ptr noundef %5, ptr noundef %6, ptr noundef %7, ptr noundef %8, ptr noundef %9, ptr noundef %10, ptr noundef %11) #0 {
  %13 = alloca i32, align 4
  %14 = alloca double, align 8
  %15 = alloca ptr, align 8
  %16 = alloca ptr, align 8
  %17 = alloca ptr, align 8
  %18 = alloca ptr, align 8
  %19 = alloca ptr, align 8
  %20 = alloca ptr, align 8
  %21 = alloca ptr, align 8
  %22 = alloca ptr, align 8
  %23 = alloca ptr, align 8
  %24 = alloca ptr, align 8
  %25 = alloca ptr, align 8
  %26 = alloca double, align 8
  %27 = alloca double, align 8
  %28 = alloca double, align 8
  %29 = alloca double, align 8
  %30 = alloca double, align 8
  %31 = alloca double, align 8
  %32 = alloca double, align 8
  %33 = alloca double, align 8
  %34 = alloca double, align 8
  %35 = alloca double, align 8
  %36 = alloca double, align 8
  %37 = alloca double, align 8
  %38 = alloca double, align 8
  %39 = alloca double, align 8
  %40 = alloca i32, align 4
  store i32 %0, ptr %13, align 4, !tbaa !4
  store double %1, ptr %14, align 8, !tbaa !14
  store ptr %2, ptr %15, align 8, !tbaa !16
  store ptr %3, ptr %16, align 8, !tbaa !16
  store ptr %4, ptr %17, align 8, !tbaa !16
  store ptr %5, ptr %18, align 8, !tbaa !25
  store ptr %6, ptr %19, align 8, !tbaa !25
  store ptr %7, ptr %20, align 8, !tbaa !25
  store ptr %8, ptr %21, align 8, !tbaa !13
  store ptr %9, ptr %22, align 8, !tbaa !16
  store ptr %10, ptr %23, align 8, !tbaa !16
  store ptr %11, ptr %24, align 8, !tbaa !16
  call void @llvm.lifetime.start.p0(i64 8, ptr %25) #6
  call void @llvm.lifetime.start.p0(i64 8, ptr %26) #6
  call void @llvm.lifetime.start.p0(i64 8, ptr %27) #6
  call void @llvm.lifetime.start.p0(i64 8, ptr %28) #6
  call void @llvm.lifetime.start.p0(i64 8, ptr %29) #6
  call void @llvm.lifetime.start.p0(i64 8, ptr %30) #6
  call void @llvm.lifetime.start.p0(i64 8, ptr %31) #6
  call void @llvm.lifetime.start.p0(i64 8, ptr %32) #6
  call void @llvm.lifetime.start.p0(i64 8, ptr %33) #6
  call void @llvm.lifetime.start.p0(i64 8, ptr %34) #6
  call void @llvm.lifetime.start.p0(i64 8, ptr %35) #6
  call void @llvm.lifetime.start.p0(i64 8, ptr %36) #6
  call void @llvm.lifetime.start.p0(i64 8, ptr %37) #6
  call void @llvm.lifetime.start.p0(i64 8, ptr %38) #6
  call void @llvm.lifetime.start.p0(i64 8, ptr %39) #6
  call void @llvm.lifetime.start.p0(i64 4, ptr %40) #6
  %41 = load ptr, ptr %21, align 8, !tbaa !13
  store ptr %41, ptr %25, align 8, !tbaa !13
  %42 = load ptr, ptr %25, align 8, !tbaa !13
  %43 = getelementptr inbounds nuw %struct.anon, ptr %42, i32 0, i32 0
  %44 = getelementptr inbounds [3 x double], ptr %43, i64 0, i64 0
  %45 = load double, ptr %44, align 8, !tbaa !14
  store double %45, ptr %26, align 8, !tbaa !14
  %46 = load ptr, ptr %25, align 8, !tbaa !13
  %47 = getelementptr inbounds nuw %struct.anon, ptr %46, i32 0, i32 0
  %48 = getelementptr inbounds [3 x double], ptr %47, i64 0, i64 1
  %49 = load double, ptr %48, align 8, !tbaa !14
  store double %49, ptr %27, align 8, !tbaa !14
  %50 = load ptr, ptr %25, align 8, !tbaa !13
  %51 = getelementptr inbounds nuw %struct.anon, ptr %50, i32 0, i32 0
  %52 = getelementptr inbounds [3 x double], ptr %51, i64 0, i64 2
  %53 = load double, ptr %52, align 8, !tbaa !14
  store double %53, ptr %28, align 8, !tbaa !14
  %54 = load ptr, ptr %15, align 8, !tbaa !16
  %55 = getelementptr inbounds nuw %struct._generic_N_Vector, ptr %54, i32 0, i32 0
  %56 = load ptr, ptr %55, align 8, !tbaa !18
  %57 = getelementptr inbounds nuw %struct._N_VectorContent_Serial, ptr %56, i32 0, i32 2
  %58 = load ptr, ptr %57, align 8, !tbaa !21
  %59 = getelementptr inbounds double, ptr %58, i64 0
  %60 = load double, ptr %59, align 8, !tbaa !14
  store double %60, ptr %29, align 8, !tbaa !14
  %61 = load ptr, ptr %15, align 8, !tbaa !16
  %62 = getelementptr inbounds nuw %struct._generic_N_Vector, ptr %61, i32 0, i32 0
  %63 = load ptr, ptr %62, align 8, !tbaa !18
  %64 = getelementptr inbounds nuw %struct._N_VectorContent_Serial, ptr %63, i32 0, i32 2
  %65 = load ptr, ptr %64, align 8, !tbaa !21
  %66 = getelementptr inbounds double, ptr %65, i64 1
  %67 = load double, ptr %66, align 8, !tbaa !14
  store double %67, ptr %30, align 8, !tbaa !14
  %68 = load ptr, ptr %15, align 8, !tbaa !16
  %69 = getelementptr inbounds nuw %struct._generic_N_Vector, ptr %68, i32 0, i32 0
  %70 = load ptr, ptr %69, align 8, !tbaa !18
  %71 = getelementptr inbounds nuw %struct._N_VectorContent_Serial, ptr %70, i32 0, i32 2
  %72 = load ptr, ptr %71, align 8, !tbaa !21
  %73 = getelementptr inbounds double, ptr %72, i64 2
  %74 = load double, ptr %73, align 8, !tbaa !14
  store double %74, ptr %31, align 8, !tbaa !14
  store i32 0, ptr %40, align 4, !tbaa !4
  br label %75

75:                                               ; preds = %228, %12
  %76 = load i32, ptr %40, align 4, !tbaa !4
  %77 = icmp slt i32 %76, 2
  br i1 %77, label %78, label %231

78:                                               ; preds = %75
  %79 = load ptr, ptr %18, align 8, !tbaa !25
  %80 = load i32, ptr %40, align 4, !tbaa !4
  %81 = sext i32 %80 to i64
  %82 = getelementptr inbounds ptr, ptr %79, i64 %81
  %83 = load ptr, ptr %82, align 8, !tbaa !16
  %84 = getelementptr inbounds nuw %struct._generic_N_Vector, ptr %83, i32 0, i32 0
  %85 = load ptr, ptr %84, align 8, !tbaa !18
  %86 = getelementptr inbounds nuw %struct._N_VectorContent_Serial, ptr %85, i32 0, i32 2
  %87 = load ptr, ptr %86, align 8, !tbaa !21
  %88 = getelementptr inbounds double, ptr %87, i64 0
  %89 = load double, ptr %88, align 8, !tbaa !14
  store double %89, ptr %32, align 8, !tbaa !14
  %90 = load ptr, ptr %18, align 8, !tbaa !25
  %91 = load i32, ptr %40, align 4, !tbaa !4
  %92 = sext i32 %91 to i64
  %93 = getelementptr inbounds ptr, ptr %90, i64 %92
  %94 = load ptr, ptr %93, align 8, !tbaa !16
  %95 = getelementptr inbounds nuw %struct._generic_N_Vector, ptr %94, i32 0, i32 0
  %96 = load ptr, ptr %95, align 8, !tbaa !18
  %97 = getelementptr inbounds nuw %struct._N_VectorContent_Serial, ptr %96, i32 0, i32 2
  %98 = load ptr, ptr %97, align 8, !tbaa !21
  %99 = getelementptr inbounds double, ptr %98, i64 1
  %100 = load double, ptr %99, align 8, !tbaa !14
  store double %100, ptr %33, align 8, !tbaa !14
  %101 = load ptr, ptr %18, align 8, !tbaa !25
  %102 = load i32, ptr %40, align 4, !tbaa !4
  %103 = sext i32 %102 to i64
  %104 = getelementptr inbounds ptr, ptr %101, i64 %103
  %105 = load ptr, ptr %104, align 8, !tbaa !16
  %106 = getelementptr inbounds nuw %struct._generic_N_Vector, ptr %105, i32 0, i32 0
  %107 = load ptr, ptr %106, align 8, !tbaa !18
  %108 = getelementptr inbounds nuw %struct._N_VectorContent_Serial, ptr %107, i32 0, i32 2
  %109 = load ptr, ptr %108, align 8, !tbaa !21
  %110 = getelementptr inbounds double, ptr %109, i64 2
  %111 = load double, ptr %110, align 8, !tbaa !14
  store double %111, ptr %34, align 8, !tbaa !14
  %112 = load ptr, ptr %19, align 8, !tbaa !25
  %113 = load i32, ptr %40, align 4, !tbaa !4
  %114 = sext i32 %113 to i64
  %115 = getelementptr inbounds ptr, ptr %112, i64 %114
  %116 = load ptr, ptr %115, align 8, !tbaa !16
  %117 = getelementptr inbounds nuw %struct._generic_N_Vector, ptr %116, i32 0, i32 0
  %118 = load ptr, ptr %117, align 8, !tbaa !18
  %119 = getelementptr inbounds nuw %struct._N_VectorContent_Serial, ptr %118, i32 0, i32 2
  %120 = load ptr, ptr %119, align 8, !tbaa !21
  %121 = getelementptr inbounds double, ptr %120, i64 0
  %122 = load double, ptr %121, align 8, !tbaa !14
  store double %122, ptr %35, align 8, !tbaa !14
  %123 = load ptr, ptr %19, align 8, !tbaa !25
  %124 = load i32, ptr %40, align 4, !tbaa !4
  %125 = sext i32 %124 to i64
  %126 = getelementptr inbounds ptr, ptr %123, i64 %125
  %127 = load ptr, ptr %126, align 8, !tbaa !16
  %128 = getelementptr inbounds nuw %struct._generic_N_Vector, ptr %127, i32 0, i32 0
  %129 = load ptr, ptr %128, align 8, !tbaa !18
  %130 = getelementptr inbounds nuw %struct._N_VectorContent_Serial, ptr %129, i32 0, i32 2
  %131 = load ptr, ptr %130, align 8, !tbaa !21
  %132 = getelementptr inbounds double, ptr %131, i64 1
  %133 = load double, ptr %132, align 8, !tbaa !14
  store double %133, ptr %36, align 8, !tbaa !14
  %134 = load double, ptr %35, align 8, !tbaa !14
  %135 = load double, ptr %26, align 8, !tbaa !14
  %136 = load double, ptr %32, align 8, !tbaa !14
  %137 = call double @llvm.fmuladd.f64(double %135, double %136, double %134)
  %138 = load double, ptr %27, align 8, !tbaa !14
  %139 = load double, ptr %31, align 8, !tbaa !14
  %140 = fmul double %138, %139
  %141 = load double, ptr %33, align 8, !tbaa !14
  %142 = fneg double %140
  %143 = call double @llvm.fmuladd.f64(double %142, double %141, double %137)
  %144 = load double, ptr %27, align 8, !tbaa !14
  %145 = load double, ptr %30, align 8, !tbaa !14
  %146 = fmul double %144, %145
  %147 = load double, ptr %34, align 8, !tbaa !14
  %148 = fneg double %146
  %149 = call double @llvm.fmuladd.f64(double %148, double %147, double %143)
  store double %149, ptr %37, align 8, !tbaa !14
  %150 = load double, ptr %36, align 8, !tbaa !14
  %151 = load double, ptr %26, align 8, !tbaa !14
  %152 = load double, ptr %32, align 8, !tbaa !14
  %153 = fneg double %151
  %154 = call double @llvm.fmuladd.f64(double %153, double %152, double %150)
  %155 = load double, ptr %27, align 8, !tbaa !14
  %156 = load double, ptr %31, align 8, !tbaa !14
  %157 = fmul double %155, %156
  %158 = load double, ptr %33, align 8, !tbaa !14
  %159 = call double @llvm.fmuladd.f64(double %157, double %158, double %154)
  %160 = load double, ptr %27, align 8, !tbaa !14
  %161 = load double, ptr %30, align 8, !tbaa !14
  %162 = fmul double %160, %161
  %163 = load double, ptr %34, align 8, !tbaa !14
  %164 = call double @llvm.fmuladd.f64(double %162, double %163, double %159)
  %165 = load double, ptr %28, align 8, !tbaa !14
  %166 = fmul double 2.000000e+00, %165
  %167 = load double, ptr %30, align 8, !tbaa !14
  %168 = fmul double %166, %167
  %169 = load double, ptr %33, align 8, !tbaa !14
  %170 = call double @llvm.fmuladd.f64(double %168, double %169, double %164)
  store double %170, ptr %38, align 8, !tbaa !14
  %171 = load double, ptr %32, align 8, !tbaa !14
  %172 = load double, ptr %33, align 8, !tbaa !14
  %173 = fadd double %171, %172
  %174 = load double, ptr %34, align 8, !tbaa !14
  %175 = fadd double %173, %174
  store double %175, ptr %39, align 8, !tbaa !14
  %176 = load i32, ptr %40, align 4, !tbaa !4
  switch i32 %176, label %194 [
    i32 0, label %177
    i32 1, label %184
  ]

177:                                              ; preds = %78
  %178 = load double, ptr %29, align 8, !tbaa !14
  %179 = load double, ptr %37, align 8, !tbaa !14
  %180 = fadd double %179, %178
  store double %180, ptr %37, align 8, !tbaa !14
  %181 = load double, ptr %29, align 8, !tbaa !14
  %182 = load double, ptr %38, align 8, !tbaa !14
  %183 = fsub double %182, %181
  store double %183, ptr %38, align 8, !tbaa !14
  br label %194

184:                                              ; preds = %78
  %185 = load double, ptr %30, align 8, !tbaa !14
  %186 = load double, ptr %31, align 8, !tbaa !14
  %187 = load double, ptr %37, align 8, !tbaa !14
  %188 = fneg double %185
  %189 = call double @llvm.fmuladd.f64(double %188, double %186, double %187)
  store double %189, ptr %37, align 8, !tbaa !14
  %190 = load double, ptr %30, align 8, !tbaa !14
  %191 = load double, ptr %31, align 8, !tbaa !14
  %192 = load double, ptr %38, align 8, !tbaa !14
  %193 = call double @llvm.fmuladd.f64(double %190, double %191, double %192)
  store double %193, ptr %38, align 8, !tbaa !14
  br label %194

194:                                              ; preds = %78, %184, %177
  %195 = load double, ptr %37, align 8, !tbaa !14
  %196 = load ptr, ptr %20, align 8, !tbaa !25
  %197 = load i32, ptr %40, align 4, !tbaa !4
  %198 = sext i32 %197 to i64
  %199 = getelementptr inbounds ptr, ptr %196, i64 %198
  %200 = load ptr, ptr %199, align 8, !tbaa !16
  %201 = getelementptr inbounds nuw %struct._generic_N_Vector, ptr %200, i32 0, i32 0
  %202 = load ptr, ptr %201, align 8, !tbaa !18
  %203 = getelementptr inbounds nuw %struct._N_VectorContent_Serial, ptr %202, i32 0, i32 2
  %204 = load ptr, ptr %203, align 8, !tbaa !21
  %205 = getelementptr inbounds double, ptr %204, i64 0
  store double %195, ptr %205, align 8, !tbaa !14
  %206 = load double, ptr %38, align 8, !tbaa !14
  %207 = load ptr, ptr %20, align 8, !tbaa !25
  %208 = load i32, ptr %40, align 4, !tbaa !4
  %209 = sext i32 %208 to i64
  %210 = getelementptr inbounds ptr, ptr %207, i64 %209
  %211 = load ptr, ptr %210, align 8, !tbaa !16
  %212 = getelementptr inbounds nuw %struct._generic_N_Vector, ptr %211, i32 0, i32 0
  %213 = load ptr, ptr %212, align 8, !tbaa !18
  %214 = getelementptr inbounds nuw %struct._N_VectorContent_Serial, ptr %213, i32 0, i32 2
  %215 = load ptr, ptr %214, align 8, !tbaa !21
  %216 = getelementptr inbounds double, ptr %215, i64 1
  store double %206, ptr %216, align 8, !tbaa !14
  %217 = load double, ptr %39, align 8, !tbaa !14
  %218 = load ptr, ptr %20, align 8, !tbaa !25
  %219 = load i32, ptr %40, align 4, !tbaa !4
  %220 = sext i32 %219 to i64
  %221 = getelementptr inbounds ptr, ptr %218, i64 %220
  %222 = load ptr, ptr %221, align 8, !tbaa !16
  %223 = getelementptr inbounds nuw %struct._generic_N_Vector, ptr %222, i32 0, i32 0
  %224 = load ptr, ptr %223, align 8, !tbaa !18
  %225 = getelementptr inbounds nuw %struct._N_VectorContent_Serial, ptr %224, i32 0, i32 2
  %226 = load ptr, ptr %225, align 8, !tbaa !21
  %227 = getelementptr inbounds double, ptr %226, i64 2
  store double %217, ptr %227, align 8, !tbaa !14
  br label %228

228:                                              ; preds = %194
  %229 = load i32, ptr %40, align 4, !tbaa !4
  %230 = add nsw i32 %229, 1
  store i32 %230, ptr %40, align 4, !tbaa !4
  br label %75

231:                                              ; preds = %75
  call void @llvm.lifetime.end.p0(i64 4, ptr %40) #6
  call void @llvm.lifetime.end.p0(i64 8, ptr %39) #6
  call void @llvm.lifetime.end.p0(i64 8, ptr %38) #6
  call void @llvm.lifetime.end.p0(i64 8, ptr %37) #6
  call void @llvm.lifetime.end.p0(i64 8, ptr %36) #6
  call void @llvm.lifetime.end.p0(i64 8, ptr %35) #6
  call void @llvm.lifetime.end.p0(i64 8, ptr %34) #6
  call void @llvm.lifetime.end.p0(i64 8, ptr %33) #6
  call void @llvm.lifetime.end.p0(i64 8, ptr %32) #6
  call void @llvm.lifetime.end.p0(i64 8, ptr %31) #6
  call void @llvm.lifetime.end.p0(i64 8, ptr %30) #6
  call void @llvm.lifetime.end.p0(i64 8, ptr %29) #6
  call void @llvm.lifetime.end.p0(i64 8, ptr %28) #6
  call void @llvm.lifetime.end.p0(i64 8, ptr %27) #6
  call void @llvm.lifetime.end.p0(i64 8, ptr %26) #6
  call void @llvm.lifetime.end.p0(i64 8, ptr %25) #6
  ret i32 0
}