; Function Attrs: nofree norecurse nosync nounwind memory(readwrite, inaccessiblemem: none) uwtable
define internal noundef i32 @resS(i32 %0, double %1, ptr noundef readonly captures(none) %2, ptr readnone captures(none) %3, ptr readnone captures(none) %4, ptr noundef readonly captures(none) %5, ptr noundef readonly captures(none) %6, ptr noundef readonly captures(none) %7, ptr noundef readonly captures(none) %8, ptr readnone captures(none) %9, ptr readnone captures(none) %10, ptr readnone captures(none) %11) #6 {
  %13 = load double, ptr %8, align 8, !tbaa !9
  %14 = getelementptr inbounds nuw i8, ptr %8, i64 8
  %15 = load double, ptr %14, align 8, !tbaa !9
  %16 = getelementptr inbounds nuw i8, ptr %8, i64 16
  %17 = load double, ptr %16, align 8, !tbaa !9
  %18 = load ptr, ptr %2, align 8, !tbaa !11
  %19 = getelementptr inbounds nuw i8, ptr %18, i64 16
  %20 = load ptr, ptr %19, align 8, !tbaa !14
  %21 = load double, ptr %20, align 8, !tbaa !9
  %22 = getelementptr inbounds nuw i8, ptr %20, i64 8
  %23 = load double, ptr %22, align 8, !tbaa !9
  %24 = getelementptr inbounds nuw i8, ptr %20, i64 16
  %25 = load double, ptr %24, align 8, !tbaa !9
  %26 = fmul double %15, %25
  %27 = fneg double %26
  %28 = fmul double %15, %23
  %29 = fneg double %28
  %30 = fneg double %13
  %31 = fmul double %17, 2.000000e+00
  %32 = fmul double %31, %23
  %33 = fneg double %23
  br label %34

34:                                               ; preds = %12, %69
  %35 = phi i1 [ true, %12 ], [ false, %69 ]
  %indvars.iv = phi i64 [ 0, %12 ], [ 1, %69 ]
  %36 = getelementptr inbounds nuw ptr, ptr %5, i64 %indvars.iv
  %37 = load ptr, ptr %36, align 8, !tbaa !19
  %38 = load ptr, ptr %37, align 8, !tbaa !11
  %39 = getelementptr inbounds nuw i8, ptr %38, i64 16
  %40 = load ptr, ptr %39, align 8, !tbaa !14
  %41 = load double, ptr %40, align 8, !tbaa !9
  %42 = getelementptr inbounds nuw i8, ptr %40, i64 8
  %43 = load double, ptr %42, align 8, !tbaa !9
  %44 = getelementptr inbounds nuw i8, ptr %40, i64 16
  %45 = load double, ptr %44, align 8, !tbaa !9
  %46 = getelementptr inbounds nuw ptr, ptr %6, i64 %indvars.iv
  %47 = load ptr, ptr %46, align 8, !tbaa !19
  %48 = load ptr, ptr %47, align 8, !tbaa !11
  %49 = getelementptr inbounds nuw i8, ptr %48, i64 16
  %50 = load ptr, ptr %49, align 8, !tbaa !14
  %51 = load double, ptr %50, align 8, !tbaa !9
  %52 = getelementptr inbounds nuw i8, ptr %50, i64 8
  %53 = load double, ptr %52, align 8, !tbaa !9
  %54 = tail call double @llvm.fmuladd.f64(double %13, double %41, double %51)
  %55 = tail call double @llvm.fmuladd.f64(double %27, double %43, double %54)
  %56 = tail call double @llvm.fmuladd.f64(double %29, double %45, double %55)
  %57 = tail call double @llvm.fmuladd.f64(double %30, double %41, double %53)
  %58 = tail call double @llvm.fmuladd.f64(double %26, double %43, double %57)
  %59 = tail call double @llvm.fmuladd.f64(double %28, double %45, double %58)
  %60 = tail call double @llvm.fmuladd.f64(double %32, double %43, double %59)
  %61 = fadd double %41, %43
  %62 = fadd double %61, %45
  %trunc = trunc nuw i64 %indvars.iv to i1
  br i1 %trunc, label %66, label %63

63:                                               ; preds = %34
  %64 = fadd double %21, %56
  %65 = fsub double %60, %21
  br label %69

66:                                               ; preds = %34
  %67 = tail call double @llvm.fmuladd.f64(double %33, double %25, double %56)
  %68 = tail call double @llvm.fmuladd.f64(double %23, double %25, double %60)
  br label %69

69:                                               ; preds = %66, %63
  %.063 = phi double [ %68, %66 ], [ %65, %63 ]
  %.062 = phi double [ %67, %66 ], [ %64, %63 ]
  %70 = getelementptr inbounds nuw ptr, ptr %7, i64 %indvars.iv
  %71 = load ptr, ptr %70, align 8, !tbaa !19
  %72 = load ptr, ptr %71, align 8, !tbaa !11
  %73 = getelementptr inbounds nuw i8, ptr %72, i64 16
  %74 = load ptr, ptr %73, align 8, !tbaa !14
  store double %.062, ptr %74, align 8, !tbaa !9
  %75 = getelementptr inbounds nuw i8, ptr %74, i64 8
  store double %.063, ptr %75, align 8, !tbaa !9
  %76 = getelementptr inbounds nuw i8, ptr %74, i64 16
  store double %62, ptr %76, align 8, !tbaa !9
  br i1 %35, label %34, label %77

77:                                               ; preds = %69
  ret i32 0
}